target datalayout = "e-m:e-p270:32:32-p271:32:32-p272:64:64-i64:64-i128:128-f80:128-n8:16:32:64-S128"
target triple = "x86_64-pc-linux-gnu"

%struct._ir_insn = type { %struct.anon, %union.anon.6 }
%struct.anon = type { %union.anon.0, %union.anon.5 }
%union.anon.0 = type { i32 }
%union.anon.5 = type { i32 }
%union.anon.6 = type { %union._ir_val }
%union._ir_val = type { double }
%struct._ir_ctx = type { ptr, i32, i32, i32, i32, i32, i32, i32, i32, i32, i32, %struct._ir_insn, ptr, ptr, ptr, i32, i32, i32, ptr, ptr, ptr, ptr, ptr, i32, i32, i64, i32, i32, i32, i64, i32, i32, i32, i32, ptr, ptr, ptr, ptr, ptr, ptr, %union.anon.14, ptr, i32, i32, i32, i64, i32, i32, i32, ptr, ptr, ptr, ptr, %struct._ir_strtab, [61 x i32], [14 x i32] }
%union.anon.14 = type { ptr }
%struct._ir_strtab = type { ptr, i32, i32, i32, i32, ptr, i32, i32 }
%struct.anon.1 = type { %union.anon.2, %union.anon.4 }
%union.anon.2 = type { i16 }
%union.anon.4 = type { i16 }
%struct.anon.3 = type { i8, i8 }
%struct.anon.8 = type { %union.anon.9, i32 }
%union.anon.9 = type { i32 }
%struct._ir_loader = type { i32, ptr, ptr, ptr, ptr, ptr, ptr, ptr, ptr, ptr, ptr, ptr, ptr, ptr, ptr }

@ir_type_size = external constant [14 x i8], align 1

; Function Attrs: nounwind uwtable
define hidden ptr @ir_resolve_sym_name(ptr noundef %0) #0 {
  %2 = alloca ptr, align 8
  %3 = alloca ptr, align 8
  %4 = alloca ptr, align 8
  store ptr %0, ptr %2, align 8
  store ptr null, ptr %3, align 8
  store ptr null, ptr %3, align 8
  %5 = load ptr, ptr %3, align 8
  %6 = load ptr, ptr %2, align 8
  %7 = call ptr @dlsym(ptr noundef %5, ptr noundef %6) #11
  store ptr %7, ptr %4, align 8
  %8 = load ptr, ptr %4, align 8
  ret ptr %8
}

; Function Attrs: nounwind uwtable
define internal ptr @ir_sym_addr(ptr noundef %0, ptr noundef %1) #0 {
  %3 = alloca ptr, align 8
  %4 = alloca ptr, align 8
  %5 = alloca ptr, align 8
  %6 = alloca ptr, align 8
  store ptr %0, ptr %3, align 8
  store ptr %1, ptr %4, align 8
  %7 = load ptr, ptr %3, align 8
  %8 = load ptr, ptr %4, align 8
  %9 = getelementptr inbounds %struct._ir_insn, ptr %8, i32 0, i32 1
  %10 = getelementptr inbounds %struct.anon.8, ptr %9, i32 0, i32 0
  %11 = load i32, ptr %10, align 8
  %12 = call ptr @ir_get_str(ptr noundef %7, i32 noundef %11)
  store ptr %12, ptr %5, align 8
  %13 = load ptr, ptr %3, align 8
  %14 = getelementptr inbounds %struct._ir_ctx, ptr %13, i32 0, i32 52
  %15 = load ptr, ptr %14, align 8
  %16 = icmp ne ptr %15, null
  br i1 %16, label %17, label %35

17:                                               ; preds = %2
  %18 = load ptr, ptr %3, align 8
  %19 = getelementptr inbounds %struct._ir_ctx, ptr %18, i32 0, i32 52
  %20 = load ptr, ptr %19, align 8
  %21 = getelementptr inbounds %struct._ir_loader, ptr %20, i32 0, i32 12
  %22 = load ptr, ptr %21, align 8
  %23 = icmp ne ptr %22, null
  br i1 %23, label %24, label %35

24:                                               ; preds = %17
  %25 = load ptr, ptr %3, align 8
  %26 = getelementptr inbounds %struct._ir_ctx, ptr %25, i32 0, i32 52
  %27 = load ptr, ptr %26, align 8
  %28 = getelementptr inbounds %struct._ir_loader, ptr %27, i32 0, i32 12
  %29 = load ptr, ptr %28, align 8
  %30 = load ptr, ptr %3, align 8
  %31 = getelementptr inbounds %struct._ir_ctx, ptr %30, i32 0, i32 52
  %32 = load ptr, ptr %31, align 8
  %33 = load ptr, ptr %5, align 8
  %34 = call ptr %29(ptr noundef %32, ptr noundef %33, i1 noundef zeroext false)
  br label %38

35:                                               ; preds = %17, %2
  %36 = load ptr, ptr %5, align 8
  %37 = call ptr @ir_resolve_sym_name(ptr noundef %36)
  br label %38

38:                                               ; preds = %35, %24
  %39 = phi ptr [ %34, %24 ], [ %37, %35 ]
  store ptr %39, ptr %6, align 8
  %40 = load ptr, ptr %6, align 8
  ret ptr %40
}

; Function Attrs: nounwind uwtable
define internal zeroext i1 @ir_may_fuse_imm(ptr noundef %0, ptr noundef %1) #0 {
  %3 = alloca i1, align 1
  %4 = alloca ptr, align 8
  %5 = alloca ptr, align 8
  %6 = alloca ptr, align 8
  store ptr %0, ptr %4, align 8
  store ptr %1, ptr %5, align 8
  %7 = load ptr, ptr %5, align 8
  %8 = getelementptr inbounds %struct._ir_insn, ptr %7, i32 0, i32 0
  %9 = getelementptr inbounds %struct.anon, ptr %8, i32 0, i32 0
  %10 = getelementptr inbounds %struct.anon.1, ptr %9, i32 0, i32 0
  %11 = getelementptr inbounds %struct.anon.3, ptr %10, i32 0, i32 1
  %12 = load i8, ptr %11, align 1
  %13 = zext i8 %12 to i32
  %14 = icmp eq i32 %13, 6
  br i1 %14, label %15, label %71

15:                                               ; preds = %2
  %16 = load ptr, ptr %5, align 8
  %17 = getelementptr inbounds %struct._ir_insn, ptr %16, i32 0, i32 0
  %18 = getelementptr inbounds %struct.anon, ptr %17, i32 0, i32 0
  %19 = getelementptr inbounds %struct.anon.1, ptr %18, i32 0, i32 0
  %20 = getelementptr inbounds %struct.anon.3, ptr %19, i32 0, i32 0
  %21 = load i8, ptr %20, align 8
  %22 = zext i8 %21 to i32
  %23 = icmp eq i32 %22, 68
  br i1 %23, label %42, label %24

24:                                               ; preds = %15
  %25 = load ptr, ptr %5, align 8
  %26 = getelementptr inbounds %struct._ir_insn, ptr %25, i32 0, i32 0
  %27 = getelementptr inbounds %struct.anon, ptr %26, i32 0, i32 0
  %28 = getelementptr inbounds %struct.anon.1, ptr %27, i32 0, i32 0
  %29 = getelementptr inbounds %struct.anon.3, ptr %28, i32 0, i32 0
  %30 = load i8, ptr %29, align 8
  %31 = zext i8 %30 to i32
  %32 = icmp eq i32 %31, 67
  br i1 %32, label %42, label %33

33:                                               ; preds = %24
  %34 = load ptr, ptr %5, align 8
  %35 = getelementptr inbounds %struct._ir_insn, ptr %34, i32 0, i32 0
  %36 = getelementptr inbounds %struct.anon, ptr %35, i32 0, i32 0
  %37 = getelementptr inbounds %struct.anon.1, ptr %36, i32 0, i32 0
  %38 = getelementptr inbounds %struct.anon.3, ptr %37, i32 0, i32 0
  %39 = load i8, ptr %38, align 8
  %40 = zext i8 %39 to i32
  %41 = icmp eq i32 %40, 66
  br i1 %41, label %42, label %59

42:                                               ; preds = %33, %24, %15
  %43 = load ptr, ptr %4, align 8
  %44 = load ptr, ptr %5, align 8
  %45 = call ptr @ir_sym_addr(ptr noundef %43, ptr noundef %44)
  store ptr %45, ptr %6, align 8
  %46 = load ptr, ptr %6, align 8
  %47 = icmp ne ptr %46, null
  br i1 %47, label %49, label %48

48:                                               ; preds = %42
  store i1 false, ptr %3, align 1
  br label %97

49:                                               ; preds = %42
  %50 = load ptr, ptr %6, align 8
  %51 = ptrtoint ptr %50 to i64
  %52 = icmp sle i64 %51, 2147483647
  br i1 %52, label %53, label %57

53:                                               ; preds = %49
  %54 = load ptr, ptr %6, align 8
  %55 = ptrtoint ptr %54 to i64
  %56 = icmp sge i64 %55, -2147483648
  br label %57

57:                                               ; preds = %53, %49
  %58 = phi i1 [ false, %49 ], [ %56, %53 ]
  store i1 %58, ptr %3, align 1
  br label %97

59:                                               ; preds = %33
  %60 = load ptr, ptr %5, align 8
  %61 = getelementptr inbounds %struct._ir_insn, ptr %60, i32 0, i32 1
  %62 = load i64, ptr %61, align 8
  %63 = icmp sle i64 %62, 2147483647
  br i1 %63, label %64, label %69

64:                                               ; preds = %59
  %65 = load ptr, ptr %5, align 8
  %66 = getelementptr inbounds %struct._ir_insn, ptr %65, i32 0, i32 1
  %67 = load i64, ptr %66, align 8
  %68 = icmp sge i64 %67, -2147483648
  br label %69

69:                                               ; preds = %64, %59
  %70 = phi i1 [ false, %59 ], [ %68, %64 ]
  store i1 %70, ptr %3, align 1
  br label %97

71:                                               ; preds = %2
  %72 = load ptr, ptr %5, align 8
  %73 = getelementptr inbounds %struct._ir_insn, ptr %72, i32 0, i32 0
  %74 = getelementptr inbounds %struct.anon, ptr %73, i32 0, i32 0
  %75 = getelementptr inbounds %struct.anon.1, ptr %74, i32 0, i32 0
  %76 = getelementptr inbounds %struct.anon.3, ptr %75, i32 0, i32 1
  %77 = load i8, ptr %76, align 1
  %78 = zext i8 %77 to i64
  %79 = getelementptr inbounds [14 x i8], ptr @ir_type_size, i64 0, i64 %78
  %80 = load i8, ptr %79, align 1
  %81 = zext i8 %80 to i32
  %82 = icmp sle i32 %81, 4
  br i1 %82, label %95, label %83

83:                                               ; preds = %71
  %84 = load ptr, ptr %5, align 8
  %85 = getelementptr inbounds %struct._ir_insn, ptr %84, i32 0, i32 1
  %86 = load i64, ptr %85, align 8
  %87 = icmp sle i64 %86, 2147483647
  br i1 %87, label %88, label %93

88:                                               ; preds = %83
  %89 = load ptr, ptr %5, align 8
  %90 = getelementptr inbounds %struct._ir_insn, ptr %89, i32 0, i32 1
  %91 = load i64, ptr %90, align 8
  %92 = icmp sge i64 %91, -2147483648
  br label %93

93:                                               ; preds = %88, %83
  %94 = phi i1 [ false, %83 ], [ %92, %88 ]
  br label %95

95:                                               ; preds = %93, %71
  %96 = phi i1 [ true, %71 ], [ %94, %93 ]
  store i1 %96, ptr %3, align 1
  br label %97

97:                                               ; preds = %95, %69, %57, %48
  %98 = load i1, ptr %3, align 1
  ret i1 %98
}