; Function Attrs: nounwind uwtable
define internal fastcc zeroext i1 @ir_may_fuse_imm(ptr noundef %0, ptr nocapture noundef readonly %1) unnamed_addr #1 {
  %3 = getelementptr inbounds i8, ptr %1, i64 1
  %4 = load i8, ptr %3, align 1
  %5 = icmp eq i8 %4, 6
  br i1 %5, label %6, label %28

6:                                                ; preds = %2
  %7 = load i8, ptr %1, align 8
  %.off = add i8 %7, -66
  %switch = icmp ult i8 %.off, 3
  %8 = getelementptr i8, ptr %1, i64 8
  br i1 %switch, label %9, label %25

9:                                                ; preds = %6
  %.val = load i32, ptr %8, align 8
  %10 = tail call ptr @ir_get_str(ptr noundef %0, i32 noundef %.val) #22
  %11 = getelementptr inbounds i8, ptr %0, i64 328
  %12 = load ptr, ptr %11, align 8
  %.not.i = icmp eq ptr %12, null
  br i1 %.not.i, label %18, label %13

13:                                               ; preds = %9
  %14 = getelementptr inbounds i8, ptr %12, i64 96
  %15 = load ptr, ptr %14, align 8
  %.not10.i = icmp eq ptr %15, null
  br i1 %.not10.i, label %18, label %16

16:                                               ; preds = %13
  %17 = tail call ptr %15(ptr noundef nonnull %12, ptr noundef %10, i1 noundef zeroext false) #22
  br label %ir_sym_addr.exit

18:                                               ; preds = %13, %9
  %19 = tail call ptr @dlsym(ptr noundef null, ptr noundef %10) #22
  br label %ir_sym_addr.exit

ir_sym_addr.exit:                                 ; preds = %16, %18
  %20 = phi ptr [ %17, %16 ], [ %19, %18 ]
  %.not = icmp eq ptr %20, null
  br i1 %.not, label %37, label %21

21:                                               ; preds = %ir_sym_addr.exit
  %22 = icmp slt ptr %20, inttoptr (i64 2147483648 to ptr)
  %23 = icmp sgt ptr %20, inttoptr (i64 -2147483649 to ptr)
  %24 = and i1 %22, %23
  br label %37

25:                                               ; preds = %6
  %26 = load i64, ptr %8, align 8
  %27 = add i64 %26, 2147483648
  %spec.select = icmp ult i64 %27, 4294967296
  br label %37

28:                                               ; preds = %2
  %29 = zext i8 %4 to i64
  %30 = getelementptr inbounds [14 x i8], ptr @ir_type_size, i64 0, i64 %29
  %31 = load i8, ptr %30, align 1
  %32 = icmp ult i8 %31, 5
  br i1 %32, label %37, label %33

33:                                               ; preds = %28
  %34 = getelementptr inbounds i8, ptr %1, i64 8
  %35 = load i64, ptr %34, align 8
  %36 = add i64 %35, 2147483648
  %spec.select19 = icmp ult i64 %36, 4294967296
  br label %37

37:                                               ; preds = %33, %28, %ir_sym_addr.exit, %25, %21
  %.0 = phi i1 [ %24, %21 ], [ %spec.select, %25 ], [ false, %ir_sym_addr.exit ], [ true, %28 ], [ %spec.select19, %33 ]
  ret i1 %.0
}